; Function Attrs: mustprogress nounwind uwtable
define hidden void @_ZN16ShenandoahFullGC7op_fullEN7GCCause5CauseE(ptr nocapture noundef nonnull readonly align 8 dereferenceable(24) %0, i32 noundef %1) local_unnamed_addr #0 align 2 {
  %3 = alloca %class.ShenandoahMetricsSnapshot, align 8
  call void @_ZN25ShenandoahMetricsSnapshotC1Ev(ptr noundef nonnull align 8 dereferenceable(56) %3) #13
  call void @_ZN25ShenandoahMetricsSnapshot11snap_beforeEv(ptr noundef nonnull align 8 dereferenceable(56) %3) #13
  call void @_ZN16ShenandoahFullGC5do_itEN7GCCause5CauseE(ptr noundef nonnull align 8 dereferenceable(24) %0, i32 poison)
  %4 = load ptr, ptr @_ZN8Universe14_collectedHeapE, align 8
  call void @_ZN25ShenandoahMetricsSnapshot10snap_afterEv(ptr noundef nonnull align 8 dereferenceable(56) %3) #13
  %5 = call noundef zeroext i1 @_ZN25ShenandoahMetricsSnapshot16is_good_progressEv(ptr noundef nonnull align 8 dereferenceable(56) %3) #13
  %6 = getelementptr inbounds i8, ptr %4, i64 1480
  br i1 %5, label %7, label %8

7:                                                ; preds = %2
  store volatile i64 0, ptr %6, align 8
  br label %10

8:                                                ; preds = %2
  %9 = call noundef i64 asm sideeffect "lock xaddq $0,($2)", "=r,0,r,~{cc},~{memory},~{dirflag},~{fpsr},~{flags}"(i64 1, ptr nonnull %6) #13, !srcloc !6
  br label %10

10:                                               ; preds = %8, %7
  %11 = getelementptr inbounds i8, ptr %4, i64 1648
  %12 = load ptr, ptr %11, align 8
  %13 = load ptr, ptr %12, align 8
  %14 = getelementptr inbounds i8, ptr %13, i64 72
  %15 = load ptr, ptr %14, align 8
  call void %15(ptr noundef nonnull align 8 dereferenceable(193) %12) #13
  %16 = getelementptr inbounds i8, ptr %4, i64 1632
  %17 = load ptr, ptr %16, align 8
  call void @_ZN25ShenandoahCollectorPolicy19record_success_fullEv(ptr noundef nonnull align 8 dereferenceable(528) %17) #13
  ret void
}